; ModuleID = 'bench/clamav/original/global.cpp.ll'
source_filename = "bench/clamav/original/global.cpp.ll"
target datalayout = "e-m:e-p270:32:32-p271:32:32-p272:64:64-i64:64-i128:128-f80:128-n8:16:32:64-S128"
target triple = "x86_64-pc-linux-gnu"

%class.ErrorHandler = type <{ i32, i32, i8, i8, i8, i8, i8, i8, [2 x i8] }>

@ErrHandler = global %class.ErrorHandler zeroinitializer, align 4
@llvm.global_ctors = appending global [1 x { i32, ptr, ptr }] [{ i32, ptr, ptr } { i32 65535, ptr @_GLOBAL__sub_I_global.cpp, ptr null }]

declare void @_ZN12ErrorHandlerC1Ev(ptr noundef nonnull align 4 dereferenceable(14)) unnamed_addr #0

; Function Attrs: uwtable
define internal void @_GLOBAL__sub_I_global.cpp() #1 section ".text.startup" {
  tail call void @_ZN12ErrorHandlerC1Ev(ptr noundef nonnull align 4 dereferenceable(14) @ErrHandler)
  ret void
}


!llvm.module.flags = !{!0, !1, !2, !3}

!0 = !{i32 1, !"wchar_size", i32 4}
!1 = !{i32 8, !"PIC Level", i32 2}
!2 = !{i32 7, !"uwtable", i32 2}
!3 = !{i32 7, !"frame-pointer", i32 2}
